; Function Attrs: mustprogress nofree norecurse nosync nounwind memory(readwrite, inaccessiblemem: none) uwtable
define hidden void @_ZN4lean13equiv_manager5mergeEjj(ptr noundef nonnull readonly align 8 captures(none) dereferenceable(81) %0, i32 noundef %1, i32 noundef %2) local_unnamed_addr #3 align 2 {
  %4 = load ptr, ptr %0, align 8, !tbaa !9
  br label %5

5:                                                ; preds = %5, %3
  %.08.i = phi i32 [ %1, %3 ], [ %8, %5 ]
  %6 = zext i32 %.08.i to i64
  %7 = getelementptr inbounds nuw %"struct.lean::equiv_manager::node", ptr %4, i64 %6
  %8 = load i32, ptr %7, align 4, !tbaa !11
  %.not.i = icmp eq i32 %8, %.08.i
  br i1 %.not.i, label %_ZN4lean13equiv_manager4findEj.exit.preheader, label %5

_ZN4lean13equiv_manager4findEj.exit.preheader:    ; preds = %5
  %9 = getelementptr inbounds nuw %"struct.lean::equiv_manager::node", ptr %4, i64 %6
  br label %_ZN4lean13equiv_manager4findEj.exit

_ZN4lean13equiv_manager4findEj.exit:              ; preds = %_ZN4lean13equiv_manager4findEj.exit.preheader, %_ZN4lean13equiv_manager4findEj.exit
  %.08.i20 = phi i32 [ %12, %_ZN4lean13equiv_manager4findEj.exit ], [ %2, %_ZN4lean13equiv_manager4findEj.exit.preheader ]
  %10 = zext i32 %.08.i20 to i64
  %11 = getelementptr inbounds nuw %"struct.lean::equiv_manager::node", ptr %4, i64 %10
  %12 = load i32, ptr %11, align 4, !tbaa !11
  %.not.i21 = icmp eq i32 %12, %.08.i20
  br i1 %.not.i21, label %_ZN4lean13equiv_manager4findEj.exit22, label %_ZN4lean13equiv_manager4findEj.exit

_ZN4lean13equiv_manager4findEj.exit22:            ; preds = %_ZN4lean13equiv_manager4findEj.exit
  %13 = getelementptr inbounds nuw %"struct.lean::equiv_manager::node", ptr %4, i64 %10
  %.not = icmp eq i32 %.08.i, %.08.i20
  br i1 %.not, label %25, label %14

14:                                               ; preds = %_ZN4lean13equiv_manager4findEj.exit22
  %15 = getelementptr inbounds nuw i8, ptr %9, i64 4
  %16 = load i32, ptr %15, align 4, !tbaa !14
  %17 = getelementptr inbounds nuw i8, ptr %13, i64 4
  %18 = load i32, ptr %17, align 4, !tbaa !14
  %19 = icmp ult i32 %16, %18
  br i1 %19, label %20, label %21

20:                                               ; preds = %14
  store i32 %.08.i20, ptr %9, align 4, !tbaa !11
  br label %25

21:                                               ; preds = %14
  %22 = icmp ugt i32 %16, %18
  store i32 %.08.i, ptr %13, align 4, !tbaa !11
  br i1 %22, label %25, label %23

23:                                               ; preds = %21
  %24 = add i32 %16, 1
  store i32 %24, ptr %15, align 4, !tbaa !14
  br label %25

25:                                               ; preds = %21, %20, %23, %_ZN4lean13equiv_manager4findEj.exit22
  ret void
}